ARM GAS  C:\Users\Rick\AppData\Local\Temp\ccg0yzmL.s 			page 1


   1              		.cpu cortex-m3
   2              		.arch armv7-m
   3              		.fpu softvfp
   4              		.eabi_attribute 20, 1
   5              		.eabi_attribute 21, 1
   6              		.eabi_attribute 23, 3
   7              		.eabi_attribute 24, 1
   8              		.eabi_attribute 25, 1
   9              		.eabi_attribute 26, 1
  10              		.eabi_attribute 30, 1
  11              		.eabi_attribute 34, 1
  12              		.eabi_attribute 18, 4
  13              		.file	"main.c"
  14              		.text
  15              	.Ltext0:
  16              		.cfi_sections	.debug_frame
  17              		.section	.text.main,"ax",%progbits
  18              		.align	1
  19              		.global	main
  20              		.syntax unified
  21              		.thumb
  22              		.thumb_func
  24              	main:
  25              	.LFB32:
  26              		.file 1 "USER/main.c"
   1:USER/main.c   **** 
   2:USER/main.c   **** #include "ENCODER/encoder.h"
   3:USER/main.c   **** #include "LM75A/LM75A.h"
   4:USER/main.c   **** #include "OLED0561/oled0561.h"
   5:USER/main.c   **** #include "TM1640/TM1640.h"
   6:USER/main.c   **** #include "delay/delay.h"
   7:USER/main.c   **** #include "i2c/i2c.h"
   8:USER/main.c   **** #include "rtc/rtc.h"
   9:USER/main.c   **** #include "sys/sys.h"
  10:USER/main.c   **** #include "usart/usart.h"
  11:USER/main.c   **** 
  12:USER/main.c   **** void main(void) {
  27              		.loc 1 12 17 view -0
  28              		.cfi_startproc
  29              		@ args = 0, pretend = 0, frame = 1024
  30              		@ frame_needed = 0, uses_anonymous_args = 0
  31 0000 10B5     		push	{r4, lr}
  32              	.LCFI0:
  33              		.cfi_def_cfa_offset 8
  34              		.cfi_offset 4, -8
  35              		.cfi_offset 14, -4
  36 0002 ADF5806D 		sub	sp, sp, #1024
  37              	.LCFI1:
  38              		.cfi_def_cfa_offset 1032
  13:USER/main.c   ****   u8 buffer[3];
  39              		.loc 1 13 3 view .LVU1
  14:USER/main.c   ****   delay_ms(100);        //上电时等待其他器件就绪
  40              		.loc 1 14 3 view .LVU2
  41 0006 6420     		movs	r0, #100
  42 0008 FFF7FEFF 		bl	delay_ms
  43              	.LVL0:
  15:USER/main.c   ****   RCC_Configuration();  //系统时钟初始化
ARM GAS  C:\Users\Rick\AppData\Local\Temp\ccg0yzmL.s 			page 2


  44              		.loc 1 15 3 view .LVU3
  45 000c FFF7FEFF 		bl	RCC_Configuration
  46              	.LVL1:
  16:USER/main.c   ****   USART1_Init(115200);
  47              		.loc 1 16 3 view .LVU4
  48 0010 4FF4E130 		mov	r0, #115200
  49 0014 FFF7FEFF 		bl	USART1_Init
  50              	.LVL2:
  17:USER/main.c   ****   I2C_Configuration();  // I2C初始化
  51              		.loc 1 17 3 view .LVU5
  52 0018 FFF7FEFF 		bl	I2C_Configuration
  53              	.LVL3:
  18:USER/main.c   **** 
  19:USER/main.c   ****   OLED0561_Init();  // OLED初始化
  54              		.loc 1 19 3 view .LVU6
  55 001c FFF7FEFF 		bl	OLED0561_Init
  56              	.LVL4:
  20:USER/main.c   ****   OLED_DISPLAY_LIT(100);
  57              		.loc 1 20 3 view .LVU7
  58 0020 6420     		movs	r0, #100
  59 0022 FFF7FEFF 		bl	OLED_DISPLAY_LIT
  60              	.LVL5:
  21:USER/main.c   ****   OLED_DISPLAY_PIC();
  61              		.loc 1 21 3 view .LVU8
  62 0026 FFF7FEFF 		bl	OLED_DISPLAY_PIC
  63              	.LVL6:
  22:USER/main.c   **** 
  23:USER/main.c   ****   u8 buf[1024];
  64              		.loc 1 23 3 view .LVU9
  24:USER/main.c   ****   u16 idx = 0;
  65              		.loc 1 24 3 view .LVU10
  66              	.L4:
  12:USER/main.c   ****   u8 buffer[3];
  67              		.loc 1 12 17 is_stmt 0 view .LVU11
  68 002a 0023     		movs	r3, #0
  69              	.LVL7:
  70              	.L3:
  12:USER/main.c   ****   u8 buffer[3];
  71              		.loc 1 12 17 view .LVU12
  72 002c 1C46     		mov	r4, r3
  73              	.L2:
  74              	.LVL8:
  25:USER/main.c   ****   while (1) {
  75              		.loc 1 25 3 is_stmt 1 view .LVU13
  26:USER/main.c   ****     if (USART_GetFlagStatus(USART1, USART_FLAG_RXNE) != RESET) {
  76              		.loc 1 26 5 view .LVU14
  77              		.loc 1 26 9 is_stmt 0 view .LVU15
  78 002e 2021     		movs	r1, #32
  79 0030 0948     		ldr	r0, .L6
  80 0032 FFF7FEFF 		bl	USART_GetFlagStatus
  81              	.LVL9:
  82              		.loc 1 26 8 view .LVU16
  83 0036 0028     		cmp	r0, #0
  84 0038 F9D0     		beq	.L2
  85              	.LBB2:
  27:USER/main.c   ****       u8 a = USART_ReceiveData(USART1);
  86              		.loc 1 27 7 is_stmt 1 view .LVU17
ARM GAS  C:\Users\Rick\AppData\Local\Temp\ccg0yzmL.s 			page 3


  87              		.loc 1 27 14 is_stmt 0 view .LVU18
  88 003a 0748     		ldr	r0, .L6
  89 003c FFF7FEFF 		bl	USART_ReceiveData
  90              	.LVL10:
  28:USER/main.c   ****       buf[idx++] = a;
  91              		.loc 1 28 7 is_stmt 1 view .LVU19
  92              		.loc 1 28 14 is_stmt 0 view .LVU20
  93 0040 631C     		adds	r3, r4, #1
  94 0042 9BB2     		uxth	r3, r3
  95              	.LVL11:
  96              		.loc 1 28 18 view .LVU21
  97 0044 0DF80400 		strb	r0, [sp, r4]
  29:USER/main.c   ****       if (idx == 1024) {
  98              		.loc 1 29 7 is_stmt 1 view .LVU22
  99              		.loc 1 29 10 is_stmt 0 view .LVU23
 100 0048 B3F5806F 		cmp	r3, #1024
 101 004c EED1     		bne	.L3
  30:USER/main.c   ****         OLED_DISPLAY_VIDEO(buf);
 102              		.loc 1 30 9 is_stmt 1 view .LVU24
 103 004e 6846     		mov	r0, sp
 104              	.LVL12:
 105              		.loc 1 30 9 is_stmt 0 view .LVU25
 106 0050 FFF7FEFF 		bl	OLED_DISPLAY_VIDEO
 107              	.LVL13:
  31:USER/main.c   ****         idx = 0;
 108              		.loc 1 31 9 is_stmt 1 view .LVU26
 109              		.loc 1 31 9 is_stmt 0 view .LVU27
 110 0054 E9E7     		b	.L4
 111              	.L7:
 112 0056 00BF     		.align	2
 113              	.L6:
 114 0058 00380140 		.word	1073821696
 115              	.LBE2:
 116              		.cfi_endproc
 117              	.LFE32:
 119              		.text
 120              	.Letext0:
 121              		.file 2 "c:\\develop\\gcc-arm-none-eabi\\arm-none-eabi\\include\\machine\\_default_types.h"
 122              		.file 3 "c:\\develop\\gcc-arm-none-eabi\\arm-none-eabi\\include\\sys\\_stdint.h"
 123              		.file 4 "CMSIS/stm32f10x.h"
 124              		.file 5 "LIB/inc/stm32f10x_usart.h"
 125              		.file 6 "HARDWARE/OLED0561/oled0561.h"
 126              		.file 7 "BASIC/delay/delay.h"
 127              		.file 8 "BASIC/sys/sys.h"
 128              		.file 9 "BASIC/usart/usart.h"
 129              		.file 10 "BASIC/i2c/i2c.h"
ARM GAS  C:\Users\Rick\AppData\Local\Temp\ccg0yzmL.s 			page 4


DEFINED SYMBOLS
                            *ABS*:00000000 main.c
C:\Users\Rick\AppData\Local\Temp\ccg0yzmL.s:18     .text.main:00000000 $t
C:\Users\Rick\AppData\Local\Temp\ccg0yzmL.s:24     .text.main:00000000 main
C:\Users\Rick\AppData\Local\Temp\ccg0yzmL.s:114    .text.main:00000058 $d

UNDEFINED SYMBOLS
delay_ms
RCC_Configuration
USART1_Init
I2C_Configuration
OLED0561_Init
OLED_DISPLAY_LIT
OLED_DISPLAY_PIC
USART_GetFlagStatus
USART_ReceiveData
OLED_DISPLAY_VIDEO
